; Function Attrs: mustprogress nounwind uwtable
define internal fastcc void @_ZN12_GLOBAL__N_122TGlslangToSpvTraverser33addImageProcessing2QCOMDecorationEjb(ptr noundef nonnull align 8 dereferenceable(3528) %0, i32 noundef %1, i1 noundef zeroext %2) unnamed_addr #3 align 2 {
  br i1 %2, label %4, label %5

4:                                                ; preds = %3
  tail call fastcc void @_ZN12_GLOBAL__N_122TGlslangToSpvTraverser32addImageProcessingQCOMDecorationEjN3spv10DecorationE(ptr noundef nonnull align 8 dereferenceable(3528) %0, i32 noundef %1, i32 noundef 4488)
  br label %25

5:                                                ; preds = %3
  %6 = getelementptr inbounds nuw i8, ptr %0, i64 536
  %7 = zext i32 %1 to i64
  %8 = load ptr, ptr %6, align 8
  %9 = getelementptr inbounds nuw ptr, ptr %8, i64 %7
  %10 = load ptr, ptr %9, align 8
  %11 = getelementptr inbounds nuw i8, ptr %10, i64 16
  %12 = load i32, ptr %11, align 8
  %.not = icmp eq i32 %12, 86
  br i1 %.not, label %13, label %24

13:                                               ; preds = %5
  %14 = getelementptr inbounds nuw i8, ptr %10, i64 24
  %15 = load ptr, ptr %14, align 8
  %16 = load i32, ptr %15, align 4
  tail call fastcc void @"_ZZN12_GLOBAL__N_122TGlslangToSpvTraverser33addImageProcessing2QCOMDecorationEjbENK3$_0clEjN3spv10DecorationE"(ptr nonnull %0, i32 noundef %16, i32 noundef 4488)
  %17 = load ptr, ptr %6, align 8
  %18 = getelementptr inbounds nuw ptr, ptr %17, i64 %7
  %19 = load ptr, ptr %18, align 8
  %20 = getelementptr inbounds nuw i8, ptr %19, i64 24
  %21 = load ptr, ptr %20, align 8
  %22 = getelementptr inbounds nuw i8, ptr %21, i64 4
  %23 = load i32, ptr %22, align 4
  tail call fastcc void @"_ZZN12_GLOBAL__N_122TGlslangToSpvTraverser33addImageProcessing2QCOMDecorationEjbENK3$_0clEjN3spv10DecorationE"(ptr nonnull %0, i32 noundef %23, i32 noundef 4499)
  br label %25

24:                                               ; preds = %5
  tail call fastcc void @"_ZZN12_GLOBAL__N_122TGlslangToSpvTraverser33addImageProcessing2QCOMDecorationEjbENK3$_0clEjN3spv10DecorationE"(ptr nonnull %0, i32 noundef %1, i32 noundef 4488)
  tail call fastcc void @"_ZZN12_GLOBAL__N_122TGlslangToSpvTraverser33addImageProcessing2QCOMDecorationEjbENK3$_0clEjN3spv10DecorationE"(ptr nonnull %0, i32 noundef %1, i32 noundef 4499)
  br label %25

25:                                               ; preds = %24, %13, %4
  ret void
}